target datalayout = "e-m:e-p270:32:32-p271:32:32-p272:64:64-i64:64-i128:128-f80:128-n8:16:32:64-S128"
target triple = "x86_64-unknown-linux-gnu"

%"struct.IlmThread_3_2::TaskGroup::Data" = type { %"struct.std::atomic", %"struct.std::atomic", %"class.IlmThread_3_2::Semaphore" }
%"struct.std::atomic" = type { %"struct.std::__atomic_base" }
%"struct.std::__atomic_base" = type { i32 }
%"class.IlmThread_3_2::Semaphore" = type { ptr, %union.sem_t }
%union.sem_t = type { i64, [24 x i8] }

; Function Attrs: mustprogress uwtable
define hidden void @_ZN13IlmThread_3_29TaskGroup4Data10removeTaskEv(ptr noundef nonnull align 8 dereferenceable(48) %this) #0 align 2 {
entry:
  %this.addr.i3 = alloca ptr, align 8
  %__i.addr.i4 = alloca i32, align 4
  %__m.addr.i5 = alloca i32, align 4
  %.atomictmp.i6 = alloca i32, align 4
  %atomic-temp.i7 = alloca i32, align 4
  %this.addr.i = alloca ptr, align 8
  %__i.addr.i = alloca i32, align 4
  %__m.addr.i = alloca i32, align 4
  %.atomictmp.i = alloca i32, align 4
  %atomic-temp.i = alloca i32, align 4
  %this.addr = alloca ptr, align 8
  store ptr %this, ptr %this.addr, align 8
  %this1 = load ptr, ptr %this.addr, align 8
  %numPending = getelementptr inbounds %"struct.IlmThread_3_2::TaskGroup::Data", ptr %this1, i32 0, i32 0
  store ptr %numPending, ptr %this.addr.i3, align 8
  store i32 1, ptr %__i.addr.i4, align 4
  store i32 5, ptr %__m.addr.i5, align 4
  %this1.i8 = load ptr, ptr %this.addr.i3, align 8
  %0 = load i32, ptr %__m.addr.i5, align 4
  %1 = load i32, ptr %__i.addr.i4, align 4
  store i32 %1, ptr %.atomictmp.i6, align 4
  switch i32 %0, label %monotonic.i13 [
    i32 1, label %acquire.i12
    i32 2, label %acquire.i12
    i32 3, label %release.i11
    i32 4, label %acqrel.i10
    i32 5, label %seqcst.i9
  ]

monotonic.i13:                                    ; preds = %entry
  %2 = load i32, ptr %.atomictmp.i6, align 4
  %3 = atomicrmw sub ptr %this1.i8, i32 %2 monotonic, align 4
  store i32 %3, ptr %atomic-temp.i7, align 4
  br label %_ZNSt13__atomic_baseIiE9fetch_subEiSt12memory_order.exit14

acquire.i12:                                      ; preds = %entry, %entry
  %4 = load i32, ptr %.atomictmp.i6, align 4
  %5 = atomicrmw sub ptr %this1.i8, i32 %4 acquire, align 4
  store i32 %5, ptr %atomic-temp.i7, align 4
  br label %_ZNSt13__atomic_baseIiE9fetch_subEiSt12memory_order.exit14

release.i11:                                      ; preds = %entry
  %6 = load i32, ptr %.atomictmp.i6, align 4
  %7 = atomicrmw sub ptr %this1.i8, i32 %6 release, align 4
  store i32 %7, ptr %atomic-temp.i7, align 4
  br label %_ZNSt13__atomic_baseIiE9fetch_subEiSt12memory_order.exit14

acqrel.i10:                                       ; preds = %entry
  %8 = load i32, ptr %.atomictmp.i6, align 4
  %9 = atomicrmw sub ptr %this1.i8, i32 %8 acq_rel, align 4
  store i32 %9, ptr %atomic-temp.i7, align 4
  br label %_ZNSt13__atomic_baseIiE9fetch_subEiSt12memory_order.exit14

seqcst.i9:                                        ; preds = %entry
  %10 = load i32, ptr %.atomictmp.i6, align 4
  %11 = atomicrmw sub ptr %this1.i8, i32 %10 seq_cst, align 4
  store i32 %11, ptr %atomic-temp.i7, align 4
  br label %_ZNSt13__atomic_baseIiE9fetch_subEiSt12memory_order.exit14

_ZNSt13__atomic_baseIiE9fetch_subEiSt12memory_order.exit14: ; preds = %seqcst.i9, %acqrel.i10, %release.i11, %acquire.i12, %monotonic.i13
  %12 = load i32, ptr %atomic-temp.i7, align 4
  %cmp = icmp eq i32 %12, 1
  br i1 %cmp, label %if.then, label %if.end

if.then:                                          ; preds = %_ZNSt13__atomic_baseIiE9fetch_subEiSt12memory_order.exit14
  %isEmpty = getelementptr inbounds %"struct.IlmThread_3_2::TaskGroup::Data", ptr %this1, i32 0, i32 2
  call void @_ZN13IlmThread_3_29Semaphore4postEv(ptr noundef nonnull align 8 dereferenceable(40) %isEmpty)
  br label %if.end

if.end:                                           ; preds = %if.then, %_ZNSt13__atomic_baseIiE9fetch_subEiSt12memory_order.exit14
  %inFlight = getelementptr inbounds %"struct.IlmThread_3_2::TaskGroup::Data", ptr %this1, i32 0, i32 1
  store ptr %inFlight, ptr %this.addr.i, align 8
  store i32 1, ptr %__i.addr.i, align 4
  store i32 5, ptr %__m.addr.i, align 4
  %this1.i = load ptr, ptr %this.addr.i, align 8
  %13 = load i32, ptr %__m.addr.i, align 4
  %14 = load i32, ptr %__i.addr.i, align 4
  store i32 %14, ptr %.atomictmp.i, align 4
  switch i32 %13, label %monotonic.i [
    i32 1, label %acquire.i
    i32 2, label %acquire.i
    i32 3, label %release.i
    i32 4, label %acqrel.i
    i32 5, label %seqcst.i
  ]

monotonic.i:                                      ; preds = %if.end
  %15 = load i32, ptr %.atomictmp.i, align 4
  %16 = atomicrmw sub ptr %this1.i, i32 %15 monotonic, align 4
  store i32 %16, ptr %atomic-temp.i, align 4
  br label %_ZNSt13__atomic_baseIiE9fetch_subEiSt12memory_order.exit

acquire.i:                                        ; preds = %if.end, %if.end
  %17 = load i32, ptr %.atomictmp.i, align 4
  %18 = atomicrmw sub ptr %this1.i, i32 %17 acquire, align 4
  store i32 %18, ptr %atomic-temp.i, align 4
  br label %_ZNSt13__atomic_baseIiE9fetch_subEiSt12memory_order.exit

release.i:                                        ; preds = %if.end
  %19 = load i32, ptr %.atomictmp.i, align 4
  %20 = atomicrmw sub ptr %this1.i, i32 %19 release, align 4
  store i32 %20, ptr %atomic-temp.i, align 4
  br label %_ZNSt13__atomic_baseIiE9fetch_subEiSt12memory_order.exit

acqrel.i:                                         ; preds = %if.end
  %21 = load i32, ptr %.atomictmp.i, align 4
  %22 = atomicrmw sub ptr %this1.i, i32 %21 acq_rel, align 4
  store i32 %22, ptr %atomic-temp.i, align 4
  br label %_ZNSt13__atomic_baseIiE9fetch_subEiSt12memory_order.exit

seqcst.i:                                         ; preds = %if.end
  %23 = load i32, ptr %.atomictmp.i, align 4
  %24 = atomicrmw sub ptr %this1.i, i32 %23 seq_cst, align 4
  store i32 %24, ptr %atomic-temp.i, align 4
  br label %_ZNSt13__atomic_baseIiE9fetch_subEiSt12memory_order.exit

_ZNSt13__atomic_baseIiE9fetch_subEiSt12memory_order.exit: ; preds = %seqcst.i, %acqrel.i, %release.i, %acquire.i, %monotonic.i
  ret void
}