; Function Attrs: mustprogress uwtable
define hidden void @_ZN13IlmThread_3_29TaskGroup4Data10removeTaskEv(ptr noundef nonnull align 8 dereferenceable(48) %this) local_unnamed_addr #0 align 2 {
entry:
  %0 = atomicrmw sub ptr %this, i32 1 seq_cst, align 4
  %cmp = icmp eq i32 %0, 1
  br i1 %cmp, label %if.then, label %seqcst.i

if.then:                                          ; preds = %entry
  %isEmpty = getelementptr inbounds i8, ptr %this, i64 8
  tail call void @_ZN13IlmThread_3_29Semaphore4postEv(ptr noundef nonnull align 8 dereferenceable(40) %isEmpty)
  br label %seqcst.i

seqcst.i:                                         ; preds = %entry, %if.then
  %inFlight = getelementptr inbounds i8, ptr %this, i64 4
  %1 = atomicrmw sub ptr %inFlight, i32 1 seq_cst, align 4
  ret void
}